(lp0
(dp1
S'711141e6'
p2
(dp3
S'battery'
p4
S'C:\\Users\\yuhui\\Documents\\GitHub\\monkeyTest\\info\\711141e6_battery.pickle'
p5
sS'men'
p6
S'C:\\Users\\yuhui\\Documents\\GitHub\\monkeyTest\\info\\711141e6_men.pickle'
p7
sS'flow'
p8
S'C:\\Users\\yuhui\\Documents\\GitHub\\monkeyTest\\info\\711141e6_flow.pickle'
p9
sS'header'
p10
(dp11
S'monkey_log'
p12
S'C:\\Users\\yuhui\\Documents\\GitHub\\monkeyTest\\log\\7235e3ef-490a-423b-b740-22ca51feef72monkey.log'
p13
sS'kel'
p14
S'4\xe6\xa0\xb8'
p15
sS'rom'
p16
I2901820
sS'afterBattery'
p17
I92
sS'beforeBattery'
p18
I92
sS'pix'
p19
V1080x1920
p20
sS'time'
p21
S'5\xe7\xa7\x92'
p22
sS'net'
p23
Vwifi
p24
sS'phone_name'
p25
V]:_]:_-keys]
p26
ssS'fps'
p27
S'C:\\Users\\yuhui\\Documents\\GitHub\\monkeyTest\\info\\711141e6_fps.pickle'
p28
sS'cpu'
p29
S'C:\\Users\\yuhui\\Documents\\GitHub\\monkeyTest\\info\\711141e6_cpu.pickle'
p30
ssa.