(lp0
(dp1
S'192.168.179.101:5555'
p2
(dp3
S'battery'
p4
S'C:\\Users\\yuhui\\Documents\\GitHub\\monkeyTest\\info\\192.168.179.101:5555_battery.pickle'
p5
sS'men'
p6
S'C:\\Users\\yuhui\\Documents\\GitHub\\monkeyTest\\info\\192.168.179.101:5555_men.pickle'
p7
sS'flow'
p8
S'C:\\Users\\yuhui\\Documents\\GitHub\\monkeyTest\\info\\192.168.179.101:5555_flow.pickle'
p9
sS'header'
p10
(dp11
S'monkey_log'
p12
S'C:\\Users\\yuhui\\Documents\\GitHub\\monkeyTest\\log\\285d9277-71ec-4fbd-afc3-8c9ad458cab9monkey.log'
p13
sS'kel'
p14
S'4\xe6\xa0\xb8'
p15
sS'rom'
p16
I2051740
sS'afterBattery'
p17
I97
sS'beforeBattery'
p18
I97
sS'pix'
p19
V768x1280
p20
sS'time'
p21
S'4\xe7\xa7\x92'
p22
sS'net'
p23
Vwifi
p24
sS'phone_name'
p25
V.geny-def]:_.geny-def]:_]:
p26
ssS'fps'
p27
S'C:\\Users\\yuhui\\Documents\\GitHub\\monkeyTest\\info\\192.168.179.101:5555_fps.pickle'
p28
sS'cpu'
p29
S'C:\\Users\\yuhui\\Documents\\GitHub\\monkeyTest\\info\\192.168.179.101:5555_cpu.pickle'
p30
ssa.