(lp0
(dp1
S'192.168.179.101:5555'
p2
(dp3
S'battery'
p4
S'C:\\Users\\yuhui\\Documents\\GitHub\\monkeyTest\\info\\192.168.179.101:5555_battery.pickle'
p5
sS'men'
p6
S'C:\\Users\\yuhui\\Documents\\GitHub\\monkeyTest\\info\\192.168.179.101:5555_men.pickle'
p7
sS'flow'
p8
S'C:\\Users\\yuhui\\Documents\\GitHub\\monkeyTest\\info\\192.168.179.101:5555_flow.pickle'
p9
sS'header'
p10
(dp11
S'monkey_log'
p12
S'C:\\Users\\yuhui\\Documents\\GitHub\\monkeyTest\\log\\728e78a8-e303-41f6-8d8c-ead05cc73468monkey.log'
p13
sS'kel'
p14
S'4\xe6\xa0\xb8'
p15
sS'rom'
p16
I2051740
sS'beforeBattery'
p17
I100
sS'afterBattery'
p18
I100
sS'pix'
p19
V768x1280
p20
sS'time'
p21
S'5\xe7\xa7\x92'
p22
sS'net'
p23
Vwifi
p24
sS'phone_name'
p25
V.geny-def]:_.geny-def]:_]:
p26
ssS'fps'
p27
S'C:\\Users\\yuhui\\Documents\\GitHub\\monkeyTest\\info\\192.168.179.101:5555_fps.pickle'
p28
sS'cpu'
p29
S'C:\\Users\\yuhui\\Documents\\GitHub\\monkeyTest\\info\\192.168.179.101:5555_cpu.pickle'
p30
ssa(dp31
S'192.168.179.101:5555'
p32
(dp33
S'battery'
p34
S'C:\\Users\\yuhui\\Documents\\GitHub\\monkeyTest\\info\\192.168.179.101:5555_battery.pickle'
p35
sS'men'
p36
S'C:\\Users\\yuhui\\Documents\\GitHub\\monkeyTest\\info\\192.168.179.101:5555_men.pickle'
p37
sS'flow'
p38
S'C:\\Users\\yuhui\\Documents\\GitHub\\monkeyTest\\info\\192.168.179.101:5555_flow.pickle'
p39
sS'header'
p40
(dp41
S'monkey_log'
p42
S'C:\\Users\\yuhui\\Documents\\GitHub\\monkeyTest\\log\\63c54951-f0d7-4b4c-8451-28e4ee680116monkey.log'
p43
sS'kel'
p44
S'4\xe6\xa0\xb8'
p45
sS'rom'
p46
I2051740
sS'afterBattery'
p47
I100
sS'beforeBattery'
p48
I100
sS'pix'
p49
V768x1280
p50
sS'time'
p51
S'173\xe7\xa7\x92'
p52
sS'net'
p53
Vwifi
p54
sS'phone_name'
p55
V.geny-def]:_.geny-def]:_]:
p56
ssS'fps'
p57
S'C:\\Users\\yuhui\\Documents\\GitHub\\monkeyTest\\info\\192.168.179.101:5555_fps.pickle'
p58
sS'cpu'
p59
S'C:\\Users\\yuhui\\Documents\\GitHub\\monkeyTest\\info\\192.168.179.101:5555_cpu.pickle'
p60
ssa.